target datalayout = "e-m:e-p270:32:32-p271:32:32-p272:64:64-i64:64-i128:128-f80:128-n8:16:32:64-S128"
target triple = "x86_64-pc-linux-gnu"

%class.insn_t = type { i64 }
%class.processor_t = type { %class.abstract_device_t, i8, i32, ptr, ptr, ptr, ptr, %"class.std::unordered_map", ptr, %struct.state_t, i32, i32, i8, i8, ptr, %"class.std::basic_ostream", i8, i8, i8, %"class.std::vector.85", %"class.std::bitset", %"class.std::bitset", %"class.std::bitset", %"class.std::vector.89", %"class.std::unordered_map.94", [8191 x %struct.insn_desc_t], i64, i64, i64, %class.entropy_source, i64, i64, %class.vectorUnit_t, %"class.triggers::module_t" }
%class.abstract_device_t = type { ptr }
%"class.std::unordered_map" = type { %"class.std::_Hashtable" }
%"class.std::_Hashtable" = type { ptr, i64, %"struct.std::__detail::_Hash_node_base", i64, %"struct.std::__detail::_Prime_rehash_policy", ptr }
%"struct.std::__detail::_Hash_node_base" = type { ptr }
%"struct.std::__detail::_Prime_rehash_policy" = type { float, i64 }
%struct.state_t = type { i64, %class.regfile_t, %class.regfile_t.2, %"class.std::unordered_map.3", i64, i64, i8, i8, i8, i8, %"class.std::shared_ptr", %"class.std::shared_ptr.23", %"class.std::shared_ptr.26", %"class.std::shared_ptr.26", %"class.std::shared_ptr.26", %"class.std::shared_ptr.26", %"class.std::shared_ptr.26", %"class.std::shared_ptr.29", %"class.std::shared_ptr.29", %"class.std::shared_ptr.32", %"class.std::shared_ptr.35", %"class.std::shared_ptr.26", %"class.std::shared_ptr.26", %"class.std::shared_ptr.26", [29 x %"class.std::shared_ptr.26"], %"class.std::shared_ptr.26", %"class.std::shared_ptr.26", %"class.std::shared_ptr.26", %"class.std::shared_ptr.26", %"class.std::shared_ptr.26", %"class.std::shared_ptr.26", %"class.std::shared_ptr.38", %"class.std::shared_ptr.26", %"class.std::shared_ptr.26", %"class.std::shared_ptr.26", %"class.std::shared_ptr.26", %"class.std::shared_ptr.26", %"class.std::shared_ptr.41", %"class.std::shared_ptr.26", %"class.std::shared_ptr.26", %"class.std::shared_ptr.26", %"class.std::shared_ptr.26", %"class.std::shared_ptr.26", %"class.std::shared_ptr.26", %"class.std::shared_ptr.26", %"class.std::shared_ptr.26", %"class.std::shared_ptr.26", %"class.std::shared_ptr.44", %"class.std::shared_ptr.47", %"class.std::shared_ptr.50", %"class.std::shared_ptr.26", %"class.std::shared_ptr.26", %"class.std::shared_ptr.26", %"class.std::shared_ptr.26", %"class.std::shared_ptr.26", %"class.std::shared_ptr.26", %"class.std::shared_ptr.53", %"class.std::shared_ptr.26", %"class.std::shared_ptr.26", %"class.std::shared_ptr.26", %"class.std::shared_ptr.26", %"class.std::shared_ptr.26", i8, %"class.std::shared_ptr.56", [64 x %"class.std::shared_ptr.59"], %"class.std::shared_ptr.62", %"class.std::shared_ptr.62", %"class.std::shared_ptr.26", %"class.std::shared_ptr.26", %"class.std::shared_ptr.26", [4 x %"class.std::shared_ptr.26"], [4 x %"class.std::shared_ptr.26"], [4 x %"class.std::shared_ptr.26"], %"class.std::shared_ptr.26", %"class.std::shared_ptr.65", %"class.std::shared_ptr.26", %"class.std::shared_ptr.26", %"class.std::shared_ptr.26", %"class.std::shared_ptr.26", i8, i32, %"class.std::unordered_map.68", %"class.std::vector", %"class.std::vector", i64, i32, i32 }
%class.regfile_t = type { [32 x i64] }
%class.regfile_t.2 = type { [32 x %struct.float128_t] }
%struct.float128_t = type { [2 x i64] }
%"class.std::unordered_map.3" = type { %"class.std::_Hashtable.4" }
%"class.std::_Hashtable.4" = type { ptr, i64, %"struct.std::__detail::_Hash_node_base", i64, %"struct.std::__detail::_Prime_rehash_policy", ptr }
%"class.std::shared_ptr" = type { %"class.std::__shared_ptr" }
%"class.std::__shared_ptr" = type { ptr, %"class.std::__shared_count" }
%"class.std::__shared_count" = type { ptr }
%"class.std::shared_ptr.23" = type { %"class.std::__shared_ptr.24" }
%"class.std::__shared_ptr.24" = type { ptr, %"class.std::__shared_count" }
%"class.std::shared_ptr.29" = type { %"class.std::__shared_ptr.30" }
%"class.std::__shared_ptr.30" = type { ptr, %"class.std::__shared_count" }
%"class.std::shared_ptr.32" = type { %"class.std::__shared_ptr.33" }
%"class.std::__shared_ptr.33" = type { ptr, %"class.std::__shared_count" }
%"class.std::shared_ptr.35" = type { %"class.std::__shared_ptr.36" }
%"class.std::__shared_ptr.36" = type { ptr, %"class.std::__shared_count" }
%"class.std::shared_ptr.38" = type { %"class.std::__shared_ptr.39" }
%"class.std::__shared_ptr.39" = type { ptr, %"class.std::__shared_count" }
%"class.std::shared_ptr.41" = type { %"class.std::__shared_ptr.42" }
%"class.std::__shared_ptr.42" = type { ptr, %"class.std::__shared_count" }
%"class.std::shared_ptr.44" = type { %"class.std::__shared_ptr.45" }
%"class.std::__shared_ptr.45" = type { ptr, %"class.std::__shared_count" }
%"class.std::shared_ptr.47" = type { %"class.std::__shared_ptr.48" }
%"class.std::__shared_ptr.48" = type { ptr, %"class.std::__shared_count" }
%"class.std::shared_ptr.50" = type { %"class.std::__shared_ptr.51" }
%"class.std::__shared_ptr.51" = type { ptr, %"class.std::__shared_count" }
%"class.std::shared_ptr.53" = type { %"class.std::__shared_ptr.54" }
%"class.std::__shared_ptr.54" = type { ptr, %"class.std::__shared_count" }
%"class.std::shared_ptr.56" = type { %"class.std::__shared_ptr.57" }
%"class.std::__shared_ptr.57" = type { ptr, %"class.std::__shared_count" }
%"class.std::shared_ptr.59" = type { %"class.std::__shared_ptr.60" }
%"class.std::__shared_ptr.60" = type { ptr, %"class.std::__shared_count" }
%"class.std::shared_ptr.62" = type { %"class.std::__shared_ptr.63" }
%"class.std::__shared_ptr.63" = type { ptr, %"class.std::__shared_count" }
%"class.std::shared_ptr.65" = type { %"class.std::__shared_ptr.66" }
%"class.std::__shared_ptr.66" = type { ptr, %"class.std::__shared_count" }
%"class.std::shared_ptr.26" = type { %"class.std::__shared_ptr.27" }
%"class.std::__shared_ptr.27" = type { ptr, %"class.std::__shared_count" }
%"class.std::unordered_map.68" = type { %"class.std::_Hashtable.69" }
%"class.std::_Hashtable.69" = type { ptr, i64, %"struct.std::__detail::_Hash_node_base", i64, %"struct.std::__detail::_Prime_rehash_policy", ptr }
%"class.std::vector" = type { %"struct.std::_Vector_base" }
%"struct.std::_Vector_base" = type { %"struct.std::_Vector_base<std::tuple<unsigned long, unsigned long, unsigned char>, std::allocator<std::tuple<unsigned long, unsigned long, unsigned char>>>::_Vector_impl" }
%"struct.std::_Vector_base<std::tuple<unsigned long, unsigned long, unsigned char>, std::allocator<std::tuple<unsigned long, unsigned long, unsigned char>>>::_Vector_impl" = type { %"struct.std::_Vector_base<std::tuple<unsigned long, unsigned long, unsigned char>, std::allocator<std::tuple<unsigned long, unsigned long, unsigned char>>>::_Vector_impl_data" }
%"struct.std::_Vector_base<std::tuple<unsigned long, unsigned long, unsigned char>, std::allocator<std::tuple<unsigned long, unsigned long, unsigned char>>>::_Vector_impl_data" = type { ptr, ptr, ptr }
%"class.std::basic_ostream" = type { ptr, %"class.std::basic_ios" }
%"class.std::basic_ios" = type { %"class.std::ios_base", ptr, i8, i8, ptr, ptr, ptr, ptr }
%"class.std::ios_base" = type { ptr, i64, i64, i32, i32, i32, ptr, %"struct.std::ios_base::_Words", [8 x %"struct.std::ios_base::_Words"], i32, ptr, %"class.std::locale" }
%"struct.std::ios_base::_Words" = type { ptr, i64 }
%"class.std::locale" = type { ptr }
%"class.std::vector.85" = type { %"struct.std::_Bvector_base" }
%"struct.std::_Bvector_base" = type { %"struct.std::_Bvector_base<std::allocator<bool>>::_Bvector_impl" }
%"struct.std::_Bvector_base<std::allocator<bool>>::_Bvector_impl" = type { %"struct.std::_Bvector_base<std::allocator<bool>>::_Bvector_impl_data" }
%"struct.std::_Bvector_base<std::allocator<bool>>::_Bvector_impl_data" = type { %"struct.std::_Bit_iterator", %"struct.std::_Bit_iterator", ptr }
%"struct.std::_Bit_iterator" = type { %"struct.std::_Bit_iterator_base.base", [4 x i8] }
%"struct.std::_Bit_iterator_base.base" = type <{ ptr, i32 }>
%"class.std::bitset" = type { %"struct.std::_Base_bitset" }
%"struct.std::_Base_bitset" = type { [3 x i64] }
%"class.std::vector.89" = type { %"struct.std::_Vector_base.90" }
%"struct.std::_Vector_base.90" = type { %"struct.std::_Vector_base<insn_desc_t, std::allocator<insn_desc_t>>::_Vector_impl" }
%"struct.std::_Vector_base<insn_desc_t, std::allocator<insn_desc_t>>::_Vector_impl" = type { %"struct.std::_Vector_base<insn_desc_t, std::allocator<insn_desc_t>>::_Vector_impl_data" }
%"struct.std::_Vector_base<insn_desc_t, std::allocator<insn_desc_t>>::_Vector_impl_data" = type { ptr, ptr, ptr }
%"class.std::unordered_map.94" = type { %"class.std::_Hashtable.95" }
%"class.std::_Hashtable.95" = type { ptr, i64, %"struct.std::__detail::_Hash_node_base", i64, %"struct.std::__detail::_Prime_rehash_policy", ptr }
%struct.insn_desc_t = type { i64, i64, ptr, ptr, ptr, ptr, ptr, ptr, ptr, ptr }
%class.entropy_source = type { %"class.std::__cxx11::basic_string" }
%"class.std::__cxx11::basic_string" = type { %"struct.std::__cxx11::basic_string<char>::_Alloc_hider", i64, %union.anon }
%"struct.std::__cxx11::basic_string<char>::_Alloc_hider" = type { ptr }
%union.anon = type { i64, [8 x i8] }
%class.vectorUnit_t = type <{ ptr, ptr, [32 x i8], i32, [4 x i8], i64, i64, %"class.std::shared_ptr.26", %"class.std::shared_ptr.111", %"class.std::shared_ptr.111", %"class.std::shared_ptr.111", %"class.std::shared_ptr.111", i64, i64, i64, float, [4 x i8], i64, i64, i8, i8, [6 x i8] }>
%"class.std::shared_ptr.111" = type { %"class.std::__shared_ptr.112" }
%"class.std::__shared_ptr.112" = type { ptr, %"class.std::__shared_count" }
%"class.triggers::module_t" = type { ptr, %"class.std::vector.114" }
%"class.std::vector.114" = type { %"struct.std::_Vector_base.115" }
%"struct.std::_Vector_base.115" = type { %"struct.std::_Vector_base<triggers::trigger_t *, std::allocator<triggers::trigger_t *>>::_Vector_impl" }
%"struct.std::_Vector_base<triggers::trigger_t *, std::allocator<triggers::trigger_t *>>::_Vector_impl" = type { %"struct.std::_Vector_base<triggers::trigger_t *, std::allocator<triggers::trigger_t *>>::_Vector_impl_data" }
%"struct.std::_Vector_base<triggers::trigger_t *, std::allocator<triggers::trigger_t *>>::_Vector_impl_data" = type { ptr, ptr, ptr }
%class.basic_csr_t = type { %class.csr_t.base, i64 }
%class.csr_t.base = type <{ ptr, ptr, ptr, i64, i32, i8 }>
%class.insn_trap_t = type { %class.trap_t, i8, i64 }
%class.trap_t = type { ptr, i64 }

@_ZTI24trap_illegal_instruction = linkonce_odr constant { ptr, ptr, ptr } { ptr getelementptr inbounds (ptr, ptr @_ZTVN10__cxxabiv120__si_class_type_infoE, i64 2), ptr @_ZTS24trap_illegal_instruction, ptr @_ZTI11insn_trap_t }, comdat, align 8

; Function Attrs: mustprogress nounwind uwtable
define linkonce_odr noundef i64 @_ZNSt12_Base_bitsetILm3EE11_S_whichbitEm(i64 noundef %0) #5 comdat align 2 {
  %2 = alloca i64, align 8
  store i64 %0, ptr %2, align 8
  %3 = load i64, ptr %2, align 8
  %4 = urem i64 %3, 64
  ret i64 %4
}

; Function Attrs: mustprogress nounwind uwtable
define linkonce_odr noundef i64 @_ZNSt12_Base_bitsetILm3EE12_S_whichwordEm(i64 noundef %0) #5 comdat align 2 {
  %2 = alloca i64, align 8
  store i64 %0, ptr %2, align 8
  %3 = load i64, ptr %2, align 8
  %4 = udiv i64 %3, 64
  ret i64 %4
}

; Function Attrs: mustprogress nounwind uwtable
define linkonce_odr noundef i64 @_ZNSt12_Base_bitsetILm3EE10_S_maskbitEm(i64 noundef %0) #5 comdat align 2 {
  %2 = alloca i64, align 8
  store i64 %0, ptr %2, align 8
  %3 = load i64, ptr %2, align 8
  %4 = call noundef i64 @_ZNSt12_Base_bitsetILm3EE11_S_whichbitEm(i64 noundef %3) #3
  %5 = shl i64 1, %4
  ret i64 %5
}

; Function Attrs: mustprogress nounwind uwtable
define linkonce_odr noundef i64 @_ZNKSt12_Base_bitsetILm3EE10_M_getwordEm(ptr noundef nonnull align 8 dereferenceable(24) %0, i64 noundef %1) #5 comdat align 2 {
  %3 = alloca ptr, align 8
  %4 = alloca i64, align 8
  store ptr %0, ptr %3, align 8
  store i64 %1, ptr %4, align 8
  %5 = load ptr, ptr %3, align 8
  %6 = getelementptr inbounds %"struct.std::_Base_bitset", ptr %5, i32 0, i32 0
  %7 = load i64, ptr %4, align 8
  %8 = call noundef i64 @_ZNSt12_Base_bitsetILm3EE12_S_whichwordEm(i64 noundef %7) #3
  %9 = getelementptr inbounds [3 x i64], ptr %6, i64 0, i64 %8
  %10 = load i64, ptr %9, align 8
  ret i64 %10
}

; Function Attrs: mustprogress nounwind uwtable
define linkonce_odr noundef ptr @_ZNKSt12__shared_ptrI10misa_csr_tLN9__gnu_cxx12_Lock_policyE2EE3getEv(ptr noundef nonnull align 8 dereferenceable(16) %0) #5 comdat align 2 {
  %2 = alloca ptr, align 8
  store ptr %0, ptr %2, align 8
  %3 = load ptr, ptr %2, align 8
  %4 = getelementptr inbounds %"class.std::__shared_ptr", ptr %3, i32 0, i32 0
  %5 = load ptr, ptr %4, align 8
  ret ptr %5
}

; Function Attrs: mustprogress nounwind uwtable
define linkonce_odr void @_ZN6trap_tC2Em(ptr noundef nonnull align 8 dereferenceable(16) %0, i64 noundef %1) unnamed_addr #5 comdat align 2 {
  %3 = alloca ptr, align 8
  %4 = alloca i64, align 8
  store ptr %0, ptr %3, align 8
  store i64 %1, ptr %4, align 8
  %5 = load ptr, ptr %3, align 8
  store ptr getelementptr inbounds ({ [12 x ptr] }, ptr @_ZTV6trap_t, i32 0, i32 0, i32 2), ptr %5, align 8
  %6 = getelementptr inbounds %class.trap_t, ptr %5, i32 0, i32 1
  %7 = load i64, ptr %4, align 8
  store i64 %7, ptr %6, align 8
  ret void
}

; Function Attrs: mustprogress nounwind uwtable
define linkonce_odr noundef zeroext i1 @_ZNKSt6bitsetILm168EE15_Unchecked_testEm(ptr noundef nonnull align 8 dereferenceable(24) %0, i64 noundef %1) #5 comdat align 2 {
  %3 = alloca ptr, align 8
  %4 = alloca i64, align 8
  store ptr %0, ptr %3, align 8
  store i64 %1, ptr %4, align 8
  %5 = load ptr, ptr %3, align 8
  %6 = load i64, ptr %4, align 8
  %7 = call noundef i64 @_ZNKSt12_Base_bitsetILm3EE10_M_getwordEm(ptr noundef nonnull align 8 dereferenceable(24) %5, i64 noundef %6) #3
  %8 = load i64, ptr %4, align 8
  %9 = call noundef i64 @_ZNSt12_Base_bitsetILm3EE10_S_maskbitEm(i64 noundef %8) #3
  %10 = and i64 %7, %9
  %11 = icmp ne i64 %10, 0
  ret i1 %11
}

; Function Attrs: mustprogress nounwind uwtable
define linkonce_odr noundef i64 @_ZNK11basic_csr_t4readEv(ptr noundef nonnull align 8 dereferenceable(48) %0) unnamed_addr #5 comdat align 2 {
  %2 = alloca ptr, align 8
  store ptr %0, ptr %2, align 8
  %3 = load ptr, ptr %2, align 8
  %4 = getelementptr inbounds %class.basic_csr_t, ptr %3, i32 0, i32 1
  %5 = load i64, ptr %4, align 8
  ret i64 %5
}

; Function Attrs: mustprogress nounwind uwtable
define linkonce_odr noundef ptr @_ZNKSt19__shared_ptr_accessI10misa_csr_tLN9__gnu_cxx12_Lock_policyE2ELb0ELb0EE6_M_getEv(ptr noundef nonnull align 1 dereferenceable(1) %0) #5 comdat align 2 {
  %2 = alloca ptr, align 8
  store ptr %0, ptr %2, align 8
  %3 = load ptr, ptr %2, align 8
  %4 = call noundef ptr @_ZNKSt12__shared_ptrI10misa_csr_tLN9__gnu_cxx12_Lock_policyE2EE3getEv(ptr noundef nonnull align 8 dereferenceable(16) %3) #3
  ret ptr %4
}

; Function Attrs: mustprogress uwtable
define linkonce_odr void @_ZN11insn_trap_tC2Embm(ptr noundef nonnull align 8 dereferenceable(32) %0, i64 noundef %1, i1 noundef zeroext %2, i64 noundef %3) unnamed_addr #4 comdat align 2 {
  %5 = alloca ptr, align 8
  %6 = alloca i64, align 8
  %7 = alloca i8, align 1
  %8 = alloca i64, align 8
  store ptr %0, ptr %5, align 8
  store i64 %1, ptr %6, align 8
  %9 = zext i1 %2 to i8
  store i8 %9, ptr %7, align 1
  store i64 %3, ptr %8, align 8
  %10 = load ptr, ptr %5, align 8
  %11 = load i64, ptr %6, align 8
  call void @_ZN6trap_tC2Em(ptr noundef nonnull align 8 dereferenceable(16) %10, i64 noundef %11)
  store ptr getelementptr inbounds ({ [12 x ptr] }, ptr @_ZTV11insn_trap_t, i32 0, i32 0, i32 2), ptr %10, align 8
  %12 = getelementptr inbounds %class.insn_trap_t, ptr %10, i32 0, i32 1
  %13 = load i8, ptr %7, align 1
  %14 = trunc i8 %13 to i1
  %15 = zext i1 %14 to i8
  store i8 %15, ptr %12, align 8
  %16 = getelementptr inbounds %class.insn_trap_t, ptr %10, i32 0, i32 2
  %17 = load i64, ptr %8, align 8
  store i64 %17, ptr %16, align 8
  ret void
}

; Function Attrs: mustprogress nounwind uwtable
define linkonce_odr noundef zeroext i1 @_ZNKSt6bitsetILm168EEixEm(ptr noundef nonnull align 8 dereferenceable(24) %0, i64 noundef %1) #5 comdat align 2 {
  %3 = alloca ptr, align 8
  %4 = alloca i64, align 8
  store ptr %0, ptr %3, align 8
  store i64 %1, ptr %4, align 8
  %5 = load ptr, ptr %3, align 8
  %6 = load i64, ptr %4, align 8
  %7 = call noundef zeroext i1 @_ZNKSt6bitsetILm168EE15_Unchecked_testEm(ptr noundef nonnull align 8 dereferenceable(24) %5, i64 noundef %6) #3
  ret i1 %7
}

; Function Attrs: mustprogress nounwind uwtable
define linkonce_odr noundef zeroext i1 @_ZNK10misa_csr_t17extension_enabledEh(ptr noundef nonnull align 8 dereferenceable(64) %0, i8 noundef zeroext %1) #5 comdat align 2 {
  %3 = alloca ptr, align 8
  %4 = alloca i8, align 1
  store ptr %0, ptr %3, align 8
  store i8 %1, ptr %4, align 1
  %5 = load ptr, ptr %3, align 8
  %6 = call noundef i64 @_ZNK11basic_csr_t4readEv(ptr noundef nonnull align 8 dereferenceable(48) %5) #3
  %7 = load i8, ptr %4, align 1
  %8 = zext i8 %7 to i32
  %9 = sub nsw i32 %8, 65
  %10 = zext i32 %9 to i64
  %11 = lshr i64 %6, %10
  %12 = and i64 %11, 1
  %13 = icmp ne i64 %12, 0
  ret i1 %13
}

; Function Attrs: mustprogress nounwind uwtable
define linkonce_odr noundef ptr @_ZNKSt19__shared_ptr_accessI10misa_csr_tLN9__gnu_cxx12_Lock_policyE2ELb0ELb0EEptEv(ptr noundef nonnull align 1 dereferenceable(1) %0) #5 comdat align 2 {
  %2 = alloca ptr, align 8
  store ptr %0, ptr %2, align 8
  %3 = load ptr, ptr %2, align 8
  %4 = call noundef ptr @_ZNKSt19__shared_ptr_accessI10misa_csr_tLN9__gnu_cxx12_Lock_policyE2ELb0ELb0EE6_M_getEv(ptr noundef nonnull align 1 dereferenceable(1) %3) #3
  ret ptr %4
}

; Function Attrs: mustprogress uwtable
define linkonce_odr void @_ZN24trap_illegal_instructionC2Em(ptr noundef nonnull align 8 dereferenceable(32) %0, i64 noundef %1) unnamed_addr #4 comdat align 2 {
  %3 = alloca ptr, align 8
  %4 = alloca i64, align 8
  store ptr %0, ptr %3, align 8
  store i64 %1, ptr %4, align 8
  %5 = load ptr, ptr %3, align 8
  %6 = load i64, ptr %4, align 8
  call void @_ZN11insn_trap_tC2Embm(ptr noundef nonnull align 8 dereferenceable(32) %5, i64 noundef 2, i1 noundef zeroext false, i64 noundef %6)
  store ptr getelementptr inbounds ({ [12 x ptr] }, ptr @_ZTV24trap_illegal_instruction, i32 0, i32 0, i32 2), ptr %5, align 8
  ret void
}

; Function Attrs: mustprogress nounwind uwtable
define linkonce_odr noundef i64 @_ZN6insn_t4bitsEv(ptr noundef nonnull align 8 dereferenceable(8) %0) #5 comdat align 2 {
  %2 = alloca ptr, align 8
  store ptr %0, ptr %2, align 8
  %3 = load ptr, ptr %2, align 8
  %4 = getelementptr inbounds %class.insn_t, ptr %3, i32 0, i32 0
  %5 = load i64, ptr %4, align 8
  ret i64 %5
}

; Function Attrs: mustprogress uwtable
define linkonce_odr noundef zeroext i1 @_ZNK11processor_t17extension_enabledE15isa_extension_t(ptr noundef nonnull align 8 dereferenceable(659880) %0, i32 noundef %1) #4 comdat align 2 {
  %3 = alloca i1, align 1
  %4 = alloca ptr, align 8
  %5 = alloca i32, align 4
  store ptr %0, ptr %4, align 8
  store i32 %1, ptr %5, align 4
  %6 = load ptr, ptr %4, align 8
  %7 = load i32, ptr %5, align 4
  %8 = icmp sge i32 %7, 65
  br i1 %8, label %9, label %19

9:                                                ; preds = %2
  %10 = load i32, ptr %5, align 4
  %11 = icmp sle i32 %10, 90
  br i1 %11, label %12, label %19

12:                                               ; preds = %9
  %13 = getelementptr inbounds %class.processor_t, ptr %6, i32 0, i32 9
  %14 = getelementptr inbounds %struct.state_t, ptr %13, i32 0, i32 10
  %15 = call noundef ptr @_ZNKSt19__shared_ptr_accessI10misa_csr_tLN9__gnu_cxx12_Lock_policyE2ELb0ELb0EEptEv(ptr noundef nonnull align 1 dereferenceable(1) %14) #3
  %16 = load i32, ptr %5, align 4
  %17 = trunc i32 %16 to i8
  %18 = call noundef zeroext i1 @_ZNK10misa_csr_t17extension_enabledEh(ptr noundef nonnull align 8 dereferenceable(64) %15, i8 noundef zeroext %17) #3
  store i1 %18, ptr %3, align 1
  br label %24

19:                                               ; preds = %9, %2
  %20 = getelementptr inbounds %class.processor_t, ptr %6, i32 0, i32 20
  %21 = load i32, ptr %5, align 4
  %22 = zext i32 %21 to i64
  %23 = call noundef zeroext i1 @_ZNKSt6bitsetILm168EEixEm(ptr noundef nonnull align 8 dereferenceable(24) %20, i64 noundef %22)
  store i1 %23, ptr %3, align 1
  br label %24

24:                                               ; preds = %19, %12
  %25 = load i1, ptr %3, align 1
  ret i1 %25
}

; Function Attrs: mustprogress uwtable
define noundef i64 @_Z19fast_rv32e_fcvt_l_hP11processor_t6insn_tm(ptr noundef %0, i64 %1, i64 noundef %2) #4 personality ptr @__gxx_personality_v0 {
  %4 = alloca %class.insn_t, align 8
  %5 = alloca ptr, align 8
  %6 = alloca i64, align 8
  %7 = alloca i64, align 8
  %8 = alloca ptr, align 8
  %9 = alloca i1, align 1
  %10 = alloca ptr, align 8
  %11 = alloca i32, align 4
  %12 = getelementptr inbounds %class.insn_t, ptr %4, i32 0, i32 0
  store i64 %1, ptr %12, align 8
  store ptr %0, ptr %5, align 8
  store i64 %2, ptr %6, align 8
  %13 = load i64, ptr %6, align 8
  %14 = add i64 %13, 4
  %15 = shl i64 %14, 32
  %16 = ashr i64 %15, 32
  store i64 %16, ptr %7, align 8
  %17 = load ptr, ptr %5, align 8
  %18 = call noundef zeroext i1 @_ZNK11processor_t17extension_enabledE15isa_extension_t(ptr noundef nonnull align 8 dereferenceable(659880) %17, i32 noundef 91)
  store i1 false, ptr %9, align 1
  br i1 %18, label %22, label %19

19:                                               ; preds = %3
  %20 = load ptr, ptr %5, align 8
  %21 = call noundef zeroext i1 @_ZNK11processor_t17extension_enabledE15isa_extension_t(ptr noundef nonnull align 8 dereferenceable(659880) %20, i32 noundef 130)
  br label %22

22:                                               ; preds = %19, %3
  %23 = phi i1 [ true, %3 ], [ %21, %19 ]
  %24 = xor i1 %23, true
  br i1 %24, label %25, label %31

25:                                               ; preds = %22
  %26 = call ptr @__cxa_allocate_exception(i64 32) #3
  store ptr %26, ptr %8, align 8
  store i1 true, ptr %9, align 1
  %27 = invoke noundef i64 @_ZN6insn_t4bitsEv(ptr noundef nonnull align 8 dereferenceable(8) %4)
          to label %28 unwind label %37

28:                                               ; preds = %25
  invoke void @_ZN24trap_illegal_instructionC2Em(ptr noundef nonnull align 8 dereferenceable(32) %26, i64 noundef %27)
          to label %29 unwind label %37

29:                                               ; preds = %28
  call void @__cxa_throw(ptr %26, ptr @_ZTI24trap_illegal_instruction, ptr @_ZN24trap_illegal_instructionD2Ev) #13
  unreachable

30:                                               ; No predecessors!
  br label %32

31:                                               ; preds = %22
  br label %32

32:                                               ; preds = %31, %30
  %33 = call ptr @__cxa_allocate_exception(i64 32) #3
  %34 = invoke noundef i64 @_ZN6insn_t4bitsEv(ptr noundef nonnull align 8 dereferenceable(8) %4)
          to label %35 unwind label %45

35:                                               ; preds = %32
  invoke void @_ZN24trap_illegal_instructionC2Em(ptr noundef nonnull align 8 dereferenceable(32) %33, i64 noundef %34)
          to label %36 unwind label %45

36:                                               ; preds = %35
  call void @__cxa_throw(ptr %33, ptr @_ZTI24trap_illegal_instruction, ptr @_ZN24trap_illegal_instructionD2Ev) #13
  unreachable

37:                                               ; preds = %28, %25
  %38 = landingpad { ptr, i32 }
          cleanup
  %39 = extractvalue { ptr, i32 } %38, 0
  store ptr %39, ptr %10, align 8
  %40 = extractvalue { ptr, i32 } %38, 1
  store i32 %40, ptr %11, align 4
  %41 = load i1, ptr %9, align 1
  br i1 %41, label %42, label %44

42:                                               ; preds = %37
  %43 = load ptr, ptr %8, align 8
  call void @__cxa_free_exception(ptr %43) #3
  br label %44

44:                                               ; preds = %42, %37
  br label %49

45:                                               ; preds = %35, %32
  %46 = landingpad { ptr, i32 }
          cleanup
  %47 = extractvalue { ptr, i32 } %46, 0
  store ptr %47, ptr %10, align 8
  %48 = extractvalue { ptr, i32 } %46, 1
  store i32 %48, ptr %11, align 4
  call void @__cxa_free_exception(ptr %33) #3
  br label %49

49:                                               ; preds = %45, %44
  %50 = load ptr, ptr %10, align 8
  %51 = load i32, ptr %11, align 4
  %52 = insertvalue { ptr, i32 } poison, ptr %50, 0
  %53 = insertvalue { ptr, i32 } %52, i32 %51, 1
  resume { ptr, i32 } %53
}